ccopy_reg
_reconstructor
p0
(c__main__
Week
p1
c__builtin__
object
p2
Ntp3
Rp4
.(lp0
ccopy_reg
_reconstructor
p1
(c__main__
Course
p2
c__builtin__
object
p3
Ntp4
Rp5
(dp6
S'start'
p7
F1.0
sS'include'
p8
I01
sS'end'
p9
F2.0
sS'name'
p10
S't'
p11
sS'ID'
p12
I123
sba.