(lp0
ccopy_reg
_reconstructor
p1
(ccourses
Course
p2
c__builtin__
object
p3
Ntp4
Rp5
(dp6
S'end'
p7
F17.5
sS'name'
p8
S'Test'
p9
sS'meetings'
p10
(lp11
S'Monday'
p12
aS'Wednesday'
p13
asS'start'
p14
I16
sS'include'
p15
I01
sS'ID'
p16
I12345
sbag1
(g2
g3
Ntp17
Rp18
(dp19
g7
F14.0
sg8
S'a'
p20
sg10
(lp21
S'Monday'
p22
asg14
F12.0
sg15
I01
sg16
I12
sba.