(lp0
ccopy_reg
_reconstructor
p1
(ccourses
Course
p2
c__builtin__
object
p3
Ntp4
Rp5
(dp6
S'end'
p7
F17.0
sS'name'
p8
S'test'
p9
sS'meetings'
p10
(lp11
S'Monday'
p12
asS'start'
p13
F14.0
sS'include'
p14
I01
sS'ID'
p15
I1
sba.