(lp0
ccopy_reg
_reconstructor
p1
(ccourses
Course
p2
c__builtin__
object
p3
Ntp4
Rp5
(dp6
S'profs'
p7
(lp8
g1
(cprofessors
Professor
p9
g3
Ntp10
Rp11
(dp12
S'q'
p13
I5
sS'department'
p14
S'History'
p15
sS'name'
p16
S'Jill Lepore'
p17
sS'courses'
p18
(lp19
g5
asbag1
(g9
g3
Ntp20
Rp21
(dp22
g13
I4
sg14
S'Science'
p23
sg16
S'vktyj'
p24
sg18
(lp25
g5
asbag1
(g9
g3
Ntp26
Rp27
(dp28
g13
I4
sg14
g23
sg16
S'qkuod'
p29
sg18
(lp30
g5
asbasS'end'
p31
F17.5
sg16
S'Test'
p32
sS'meetings'
p33
(lp34
S'Monday'
p35
aS'Wednesday'
p36
asS'start'
p37
I16
sS'include'
p38
I01
sS'ID'
p39
I12345
sbag1
(g2
g3
Ntp40
Rp41
(dp42
g7
(lp43
g1
(g9
g3
Ntp44
Rp45
(dp46
g13
I2
sg14
g15
sg16
S'nstyx'
p47
sg18
(lp48
g41
asbasg31
I23
sg16
S'ewdcl'
p49
sg33
(lp50
S'Tuesday'
p51
asg37
I20
sg38
I01
sg39
I49620
sbag1
(g2
g3
Ntp52
Rp53
(dp54
g7
(lp55
sg31
I17
sg16
S'bnfhx'
p56
sg33
(lp57
g35
asg37
I14
sg38
I01
sg39
I16890
sbag1
(g2
g3
Ntp58
Rp59
(dp60
g7
(lp61
sg31
I24
sg16
S'wlary'
p62
sg33
(lp63
g36
asg37
I21
sg38
I01
sg39
I7288
sba.(lp0
ccopy_reg
_reconstructor
p1
(cprofessors
Professor
p2
c__builtin__
object
p3
Ntp4
Rp5
(dp6
S'q'
p7
I5
sS'department'
p8
S'History'
p9
sS'name'
p10
S'Jill Lepore'
p11
sS'courses'
p12
(lp13
g1
(ccourses
Course
p14
g3
Ntp15
Rp16
(dp17
S'profs'
p18
(lp19
g5
ag1
(g2
g3
Ntp20
Rp21
(dp22
g7
I4
sg8
S'Science'
p23
sg10
S'vktyj'
p24
sg12
(lp25
g16
asbag1
(g2
g3
Ntp26
Rp27
(dp28
g7
I4
sg8
g23
sg10
S'qkuod'
p29
sg12
(lp30
g16
asbasS'end'
p31
F17.5
sg10
S'Test'
p32
sS'meetings'
p33
(lp34
S'Monday'
p35
aS'Wednesday'
p36
asS'start'
p37
I16
sS'include'
p38
I01
sS'ID'
p39
I12345
sbasbag21
ag1
(g2
g3
Ntp40
Rp41
(dp42
g7
I2
sg8
g9
sg10
S'nstyx'
p43
sg12
(lp44
g1
(g14
g3
Ntp45
Rp46
(dp47
g18
(lp48
g41
asg31
I23
sg10
S'ewdcl'
p49
sg33
(lp50
S'Tuesday'
p51
asg37
I20
sg38
I01
sg39
I49620
sbasbag27
a.