(lp0
ccopy_reg
_reconstructor
p1
(ccourses
Course
p2
c__builtin__
object
p3
Ntp4
Rp5
(dp6
S'profs'
p7
(lp8
g1
(cprofessors
Professor
p9
g3
Ntp10
Rp11
(dp12
S'q'
p13
I5
sS'department'
p14
S'History'
p15
sS'name'
p16
S'Jill Lepore'
p17
sS'courses'
p18
(lp19
g5
asbasS'end'
p20
F17.5
sg16
S'Test'
p21
sS'meetings'
p22
(lp23
S'Monday'
p24
aS'Wednesday'
p25
asg13
I5
sS'start'
p26
I16
sS'include'
p27
I01
sS'ID'
p28
I12345
sba.(lp0
ccopy_reg
_reconstructor
p1
(cprofessors
Professor
p2
c__builtin__
object
p3
Ntp4
Rp5
(dp6
S'q'
p7
I5
sS'department'
p8
S'History'
p9
sS'name'
p10
S'Jill Lepore'
p11
sS'courses'
p12
(lp13
g1
(ccourses
Course
p14
g3
Ntp15
Rp16
(dp17
S'profs'
p18
(lp19
g5
asS'end'
p20
F17.5
sg10
S'Test'
p21
sS'meetings'
p22
(lp23
S'Monday'
p24
aS'Wednesday'
p25
asg7
I5
sS'start'
p26
I16
sS'include'
p27
I01
sS'ID'
p28
I12345
sbasba.